target datalayout = "e-m:e-p270:32:32-p271:32:32-p272:64:64-i64:64-i128:128-f80:128-n8:16:32:64-S128"
target triple = "x86_64-unknown-linux-gnu"

%"class.google::protobuf::io::ZeroCopyOutputStream" = type { ptr }
%"class.absl::lts_20230802::Cord" = type { %"class.absl::lts_20230802::Cord::InlineRep" }
%"class.absl::lts_20230802::Cord::InlineRep" = type { %"class.absl::lts_20230802::cord_internal::InlineData" }
%"class.absl::lts_20230802::cord_internal::InlineData" = type { %"struct.absl::lts_20230802::cord_internal::InlineData::Rep" }
%"struct.absl::lts_20230802::cord_internal::InlineData::Rep" = type { %union.anon.10 }
%union.anon.10 = type { %"struct.absl::lts_20230802::cord_internal::InlineData::Rep::AsTree" }
%"struct.absl::lts_20230802::cord_internal::InlineData::Rep::AsTree" = type { i64, ptr }
%"class.google::protobuf::io::CordOutputStream" = type { %"class.google::protobuf::io::ZeroCopyOutputStream", %"class.absl::lts_20230802::Cord", i64, i32, %"class.absl::lts_20230802::CordBuffer" }
%"class.absl::lts_20230802::CordBuffer" = type { %"struct.absl::lts_20230802::CordBuffer::Rep" }
%"struct.absl::lts_20230802::CordBuffer::Rep" = type { %union.anon.11 }
%union.anon.11 = type { %"struct.absl::lts_20230802::CordBuffer::Rep::Long" }
%"struct.absl::lts_20230802::CordBuffer::Rep::Long" = type { ptr, ptr }
%"struct.absl::lts_20230802::cord_internal::CordRep" = type { i64, %"class.absl::lts_20230802::cord_internal::RefcountAndFlags", i8, [3 x i8] }
%"class.absl::lts_20230802::cord_internal::RefcountAndFlags" = type { %"struct.std::atomic" }
%"struct.std::atomic" = type { %"struct.std::__atomic_base" }
%"struct.std::__atomic_base" = type { i32 }
%"struct.absl::lts_20230802::CordBuffer::Rep::Short" = type { i8, [15 x i8] }

; Function Attrs: noreturn nounwind uwtable
define linkonce_odr hidden void @__clang_call_terminate(ptr noundef %0) #10 comdat {
  %2 = call ptr @__cxa_begin_catch(ptr %0) #3
  call void @_ZSt9terminatev() #16
  unreachable
}

; Function Attrs: mustprogress nounwind uwtable
define linkonce_odr hidden void @_ZN4absl12lts_2023080213cord_internal11CordRepFlat6DeleteEPNS1_7CordRepE(ptr noundef %rep) #4 comdat align 2 {
entry:
  %rep.addr = alloca ptr, align 8
  store ptr %rep, ptr %rep.addr, align 8
  %0 = load ptr, ptr %rep.addr, align 8
  call void @_ZdlPv(ptr noundef %0) #3
  ret void
}

; Function Attrs: mustprogress nounwind uwtable
define linkonce_odr hidden void @_ZN4absl12lts_2023080210CordBuffer3RepC2Ev(ptr noundef nonnull align 8 dereferenceable(16) %this) unnamed_addr #4 comdat align 2 {
entry:
  %this.addr = alloca ptr, align 8
  store ptr %this, ptr %this.addr, align 8
  %this1 = load ptr, ptr %this.addr, align 8
  %0 = getelementptr inbounds %"struct.absl::lts_20230802::CordBuffer::Rep", ptr %this1, i32 0, i32 0
  %raw_size = getelementptr inbounds %"struct.absl::lts_20230802::CordBuffer::Rep::Short", ptr %0, i32 0, i32 0
  store i8 1, ptr %raw_size, align 8
  %data = getelementptr inbounds %"struct.absl::lts_20230802::CordBuffer::Rep::Short", ptr %0, i32 0, i32 1
  call void @llvm.memset.p0.i64(ptr align 1 %data, i8 0, i64 15, i1 false)
  ret void
}

; Function Attrs: mustprogress nounwind uwtable
define linkonce_odr hidden void @_ZN4absl12lts_2023080210CordBuffer3Rep16set_short_lengthEm(ptr noundef nonnull align 8 dereferenceable(16) %this, i64 noundef %length) #4 comdat align 2 {
entry:
  %this.addr = alloca ptr, align 8
  %length.addr = alloca i64, align 8
  store ptr %this, ptr %this.addr, align 8
  store i64 %length, ptr %length.addr, align 8
  %this1 = load ptr, ptr %this.addr, align 8
  %0 = load i64, ptr %length.addr, align 8
  %shl = shl i64 %0, 1
  %add = add i64 %shl, 1
  %conv = trunc i64 %add to i8
  %1 = getelementptr inbounds %"struct.absl::lts_20230802::CordBuffer::Rep", ptr %this1, i32 0, i32 0
  %raw_size = getelementptr inbounds %"struct.absl::lts_20230802::CordBuffer::Rep::Short", ptr %1, i32 0, i32 0
  store i8 %conv, ptr %raw_size, align 8
  ret void
}

; Function Attrs: mustprogress nounwind uwtable
define linkonce_odr hidden noundef ptr @_ZNK4absl12lts_2023080210CordBuffer3Rep3repEv(ptr noundef nonnull align 8 dereferenceable(16) %this) #4 comdat align 2 {
entry:
  %this.addr = alloca ptr, align 8
  store ptr %this, ptr %this.addr, align 8
  %this1 = load ptr, ptr %this.addr, align 8
  %0 = getelementptr inbounds %"struct.absl::lts_20230802::CordBuffer::Rep", ptr %this1, i32 0, i32 0
  %rep = getelementptr inbounds %"struct.absl::lts_20230802::CordBuffer::Rep::Long", ptr %0, i32 0, i32 0
  %1 = load ptr, ptr %rep, align 8
  ret ptr %1
}

; Function Attrs: mustprogress nounwind uwtable
define linkonce_odr hidden noundef i64 @_ZNK4absl12lts_2023080210CordBuffer3Rep12short_lengthEv(ptr noundef nonnull align 8 dereferenceable(16) %this) #4 comdat align 2 {
entry:
  %this.addr = alloca ptr, align 8
  store ptr %this, ptr %this.addr, align 8
  %this1 = load ptr, ptr %this.addr, align 8
  %0 = getelementptr inbounds %"struct.absl::lts_20230802::CordBuffer::Rep", ptr %this1, i32 0, i32 0
  %raw_size = getelementptr inbounds %"struct.absl::lts_20230802::CordBuffer::Rep::Short", ptr %0, i32 0, i32 0
  %1 = load i8, ptr %raw_size, align 8
  %conv = sext i8 %1 to i32
  %shr = ashr i32 %conv, 1
  %conv2 = sext i32 %shr to i64
  ret i64 %conv2
}

; Function Attrs: mustprogress nounwind uwtable
define linkonce_odr hidden noundef zeroext i1 @_ZNK4absl12lts_2023080210CordBuffer3Rep8is_shortEv(ptr noundef nonnull align 8 dereferenceable(16) %this) #4 comdat align 2 {
entry:
  %this.addr = alloca ptr, align 8
  %offset = alloca i64, align 8
  store ptr %this, ptr %this.addr, align 8
  %this1 = load ptr, ptr %this.addr, align 8
  store i64 0, ptr %offset, align 8
  %arrayidx = getelementptr inbounds i8, ptr %this1, i64 0
  %0 = load i8, ptr %arrayidx, align 1
  %conv = sext i8 %0 to i32
  %and = and i32 %conv, 1
  %cmp = icmp ne i32 %and, 0
  ret i1 %cmp
}

; Function Attrs: mustprogress nounwind uwtable
define linkonce_odr hidden void @_ZN4absl12lts_2023080210CordBufferD2Ev(ptr noundef nonnull align 8 dereferenceable(16) %this) unnamed_addr #4 comdat align 2 {
entry:
  %this.addr = alloca ptr, align 8
  store ptr %this, ptr %this.addr, align 8
  %this1 = load ptr, ptr %this.addr, align 8
  %rep_ = getelementptr inbounds %"class.absl::lts_20230802::CordBuffer", ptr %this1, i32 0, i32 0
  %call = call noundef zeroext i1 @_ZNK4absl12lts_2023080210CordBuffer3Rep8is_shortEv(ptr noundef nonnull align 8 dereferenceable(16) %rep_)
  br i1 %call, label %if.end, label %if.then

if.then:                                          ; preds = %entry
  %rep_2 = getelementptr inbounds %"class.absl::lts_20230802::CordBuffer", ptr %this1, i32 0, i32 0
  %call3 = call noundef ptr @_ZNK4absl12lts_2023080210CordBuffer3Rep3repEv(ptr noundef nonnull align 8 dereferenceable(16) %rep_2)
  call void @_ZN4absl12lts_2023080213cord_internal11CordRepFlat6DeleteEPNS1_7CordRepE(ptr noundef %call3)
  br label %if.end

if.end:                                           ; preds = %if.then, %entry
  ret void
}

; Function Attrs: mustprogress nounwind uwtable
define linkonce_odr hidden noundef nonnull align 8 dereferenceable(16) ptr @_ZN4absl12lts_2023080210CordBufferaSEOS1_(ptr noundef nonnull align 8 dereferenceable(16) %this, ptr noundef nonnull align 8 dereferenceable(16) %rhs) #4 comdat align 2 personality ptr @__gxx_personality_v0 {
entry:
  %this.addr = alloca ptr, align 8
  %rhs.addr = alloca ptr, align 8
  store ptr %this, ptr %this.addr, align 8
  store ptr %rhs, ptr %rhs.addr, align 8
  %this1 = load ptr, ptr %this.addr, align 8
  %rep_ = getelementptr inbounds %"class.absl::lts_20230802::CordBuffer", ptr %this1, i32 0, i32 0
  %call = call noundef zeroext i1 @_ZNK4absl12lts_2023080210CordBuffer3Rep8is_shortEv(ptr noundef nonnull align 8 dereferenceable(16) %rep_)
  br i1 %call, label %if.end, label %if.then

if.then:                                          ; preds = %entry
  %rep_2 = getelementptr inbounds %"class.absl::lts_20230802::CordBuffer", ptr %this1, i32 0, i32 0
  %call3 = call noundef ptr @_ZNK4absl12lts_2023080210CordBuffer3Rep3repEv(ptr noundef nonnull align 8 dereferenceable(16) %rep_2)
  invoke void @_ZN4absl12lts_2023080213cord_internal11CordRepFlat6DeleteEPNS1_7CordRepE(ptr noundef %call3)
          to label %invoke.cont unwind label %terminate.lpad

invoke.cont:                                      ; preds = %if.then
  br label %if.end

if.end:                                           ; preds = %invoke.cont, %entry
  %0 = load ptr, ptr %rhs.addr, align 8
  %rep_4 = getelementptr inbounds %"class.absl::lts_20230802::CordBuffer", ptr %0, i32 0, i32 0
  %rep_5 = getelementptr inbounds %"class.absl::lts_20230802::CordBuffer", ptr %this1, i32 0, i32 0
  call void @llvm.memcpy.p0.p0.i64(ptr align 8 %rep_5, ptr align 8 %rep_4, i64 16, i1 false)
  %1 = load ptr, ptr %rhs.addr, align 8
  %rep_6 = getelementptr inbounds %"class.absl::lts_20230802::CordBuffer", ptr %1, i32 0, i32 0
  call void @_ZN4absl12lts_2023080210CordBuffer3Rep16set_short_lengthEm(ptr noundef nonnull align 8 dereferenceable(16) %rep_6, i64 noundef 0)
  ret ptr %this1

terminate.lpad:                                   ; preds = %if.then
  %2 = landingpad { ptr, i32 }
          catch ptr null
  %3 = extractvalue { ptr, i32 } %2, 0
  call void @__clang_call_terminate(ptr %3) #16
  unreachable
}

; Function Attrs: mustprogress uwtable
define linkonce_odr hidden void @_ZN4absl12lts_2023080210CordBufferC2Ev(ptr noundef nonnull align 8 dereferenceable(16) %this) unnamed_addr #5 comdat align 2 {
entry:
  %this.addr = alloca ptr, align 8
  store ptr %this, ptr %this.addr, align 8
  %this1 = load ptr, ptr %this.addr, align 8
  %rep_ = getelementptr inbounds %"class.absl::lts_20230802::CordBuffer", ptr %this1, i32 0, i32 0
  call void @_ZN4absl12lts_2023080210CordBuffer3RepC2Ev(ptr noundef nonnull align 8 dereferenceable(16) %rep_)
  ret void
}

; Function Attrs: mustprogress nounwind uwtable
define linkonce_odr hidden void @_ZN4absl12lts_2023080210CordBuffer9SetLengthEm(ptr noundef nonnull align 8 dereferenceable(16) %this, i64 noundef %length) #4 comdat align 2 {
entry:
  %this.addr = alloca ptr, align 8
  %length.addr = alloca i64, align 8
  store ptr %this, ptr %this.addr, align 8
  store i64 %length, ptr %length.addr, align 8
  %this1 = load ptr, ptr %this.addr, align 8
  %rep_ = getelementptr inbounds %"class.absl::lts_20230802::CordBuffer", ptr %this1, i32 0, i32 0
  %call = call noundef zeroext i1 @_ZNK4absl12lts_2023080210CordBuffer3Rep8is_shortEv(ptr noundef nonnull align 8 dereferenceable(16) %rep_)
  br i1 %call, label %if.then, label %if.else

if.then:                                          ; preds = %entry
  %rep_2 = getelementptr inbounds %"class.absl::lts_20230802::CordBuffer", ptr %this1, i32 0, i32 0
  %0 = load i64, ptr %length.addr, align 8
  call void @_ZN4absl12lts_2023080210CordBuffer3Rep16set_short_lengthEm(ptr noundef nonnull align 8 dereferenceable(16) %rep_2, i64 noundef %0)
  br label %if.end

if.else:                                          ; preds = %entry
  %1 = load i64, ptr %length.addr, align 8
  %rep_3 = getelementptr inbounds %"class.absl::lts_20230802::CordBuffer", ptr %this1, i32 0, i32 0
  %call4 = call noundef ptr @_ZNK4absl12lts_2023080210CordBuffer3Rep3repEv(ptr noundef nonnull align 8 dereferenceable(16) %rep_3)
  %length5 = getelementptr inbounds %"struct.absl::lts_20230802::cord_internal::CordRep", ptr %call4, i32 0, i32 0
  store i64 %1, ptr %length5, align 8
  br label %if.end

if.end:                                           ; preds = %if.else, %if.then
  ret void
}

; Function Attrs: mustprogress uwtable
define linkonce_odr hidden noundef i64 @_ZNK4absl12lts_2023080210CordBuffer6lengthEv(ptr noundef nonnull align 8 dereferenceable(16) %this) #5 comdat align 2 {
entry:
  %this.addr = alloca ptr, align 8
  store ptr %this, ptr %this.addr, align 8
  %this1 = load ptr, ptr %this.addr, align 8
  %rep_ = getelementptr inbounds %"class.absl::lts_20230802::CordBuffer", ptr %this1, i32 0, i32 0
  %call = call noundef zeroext i1 @_ZNK4absl12lts_2023080210CordBuffer3Rep8is_shortEv(ptr noundef nonnull align 8 dereferenceable(16) %rep_)
  br i1 %call, label %cond.true, label %cond.false

cond.true:                                        ; preds = %entry
  %rep_2 = getelementptr inbounds %"class.absl::lts_20230802::CordBuffer", ptr %this1, i32 0, i32 0
  %call3 = call noundef i64 @_ZNK4absl12lts_2023080210CordBuffer3Rep12short_lengthEv(ptr noundef nonnull align 8 dereferenceable(16) %rep_2)
  br label %cond.end

cond.false:                                       ; preds = %entry
  %rep_4 = getelementptr inbounds %"class.absl::lts_20230802::CordBuffer", ptr %this1, i32 0, i32 0
  %call5 = call noundef ptr @_ZNK4absl12lts_2023080210CordBuffer3Rep3repEv(ptr noundef nonnull align 8 dereferenceable(16) %rep_4)
  %length = getelementptr inbounds %"struct.absl::lts_20230802::cord_internal::CordRep", ptr %call5, i32 0, i32 0
  %0 = load i64, ptr %length, align 8
  br label %cond.end

cond.end:                                         ; preds = %cond.false, %cond.true
  %cond = phi i64 [ %call3, %cond.true ], [ %0, %cond.false ]
  ret i64 %cond
}

; Function Attrs: mustprogress uwtable
define void @_ZN6google8protobuf2io16CordOutputStream6BackUpEi(ptr noundef nonnull align 8 dereferenceable(56) %this, i32 noundef %count) unnamed_addr #5 align 2 {
entry:
  %this.addr = alloca ptr, align 8
  %count.addr = alloca i32, align 4
  %buffer_length = alloca i32, align 4
  %ref.tmp = alloca %"class.absl::lts_20230802::CordBuffer", align 8
  store ptr %this, ptr %this.addr, align 8
  store i32 %count, ptr %count.addr, align 4
  %this1 = load ptr, ptr %this.addr, align 8
  %0 = load i32, ptr %count.addr, align 4
  %cmp = icmp eq i32 %0, 0
  br i1 %cmp, label %if.then, label %if.end

if.then:                                          ; preds = %entry
  br label %if.end10

if.end:                                           ; preds = %entry
  %buffer_ = getelementptr inbounds %"class.google::protobuf::io::CordOutputStream", ptr %this1, i32 0, i32 4
  %call = call noundef i64 @_ZNK4absl12lts_2023080210CordBuffer6lengthEv(ptr noundef nonnull align 8 dereferenceable(16) %buffer_)
  %conv = trunc i64 %call to i32
  store i32 %conv, ptr %buffer_length, align 4
  %1 = load i32, ptr %count.addr, align 4
  %2 = load i32, ptr %buffer_length, align 4
  %cmp2 = icmp sle i32 %1, %2
  br i1 %cmp2, label %if.then3, label %if.else

if.then3:                                         ; preds = %if.end
  %buffer_4 = getelementptr inbounds %"class.google::protobuf::io::CordOutputStream", ptr %this1, i32 0, i32 4
  %3 = load i32, ptr %buffer_length, align 4
  %4 = load i32, ptr %count.addr, align 4
  %sub = sub nsw i32 %3, %4
  %conv5 = sext i32 %sub to i64
  call void @_ZN4absl12lts_2023080210CordBuffer9SetLengthEm(ptr noundef nonnull align 8 dereferenceable(16) %buffer_4, i64 noundef %conv5)
  %state_ = getelementptr inbounds %"class.google::protobuf::io::CordOutputStream", ptr %this1, i32 0, i32 3
  store i32 2, ptr %state_, align 8
  br label %if.end10

if.else:                                          ; preds = %if.end
  call void @llvm.memset.p0.i64(ptr align 8 %ref.tmp, i8 0, i64 16, i1 false)
  call void @_ZN4absl12lts_2023080210CordBufferC2Ev(ptr noundef nonnull align 8 dereferenceable(16) %ref.tmp)
  %buffer_6 = getelementptr inbounds %"class.google::protobuf::io::CordOutputStream", ptr %this1, i32 0, i32 4
  %call7 = call noundef nonnull align 8 dereferenceable(16) ptr @_ZN4absl12lts_2023080210CordBufferaSEOS1_(ptr noundef nonnull align 8 dereferenceable(16) %buffer_6, ptr noundef nonnull align 8 dereferenceable(16) %ref.tmp) #3
  call void @_ZN4absl12lts_2023080210CordBufferD2Ev(ptr noundef nonnull align 8 dereferenceable(16) %ref.tmp) #3
  %cord_ = getelementptr inbounds %"class.google::protobuf::io::CordOutputStream", ptr %this1, i32 0, i32 1
  %5 = load i32, ptr %count.addr, align 4
  %conv8 = sext i32 %5 to i64
  call void @_ZN4absl12lts_202308024Cord12RemoveSuffixEm(ptr noundef nonnull align 8 dereferenceable(16) %cord_, i64 noundef %conv8)
  %state_9 = getelementptr inbounds %"class.google::protobuf::io::CordOutputStream", ptr %this1, i32 0, i32 3
  store i32 3, ptr %state_9, align 8
  br label %if.end10

if.end10:                                         ; preds = %if.else, %if.then3, %if.then
  ret void
}