; Function Attrs: mustprogress uwtable
define void @_ZN6google8protobuf2io16CordOutputStream6BackUpEi(ptr noundef nonnull align 8 dereferenceable(56) %this, i32 noundef %count) unnamed_addr #5 align 2 personality ptr @__gxx_personality_v0 {
entry:
  %cmp = icmp eq i32 %count, 0
  br i1 %cmp, label %if.end10, label %if.end

if.end:                                           ; preds = %entry
  %buffer_ = getelementptr inbounds i8, ptr %this, i64 40
  %0 = load i8, ptr %buffer_, align 8
  %1 = and i8 %0, 1
  %cmp.i.not.i = icmp eq i8 %1, 0
  br i1 %cmp.i.not.i, label %_ZNK4absl12lts_2023080210CordBuffer6lengthEv.exit, label %_ZNK4absl12lts_2023080210CordBuffer6lengthEv.exit.thread

_ZNK4absl12lts_2023080210CordBuffer6lengthEv.exit: ; preds = %if.end
  %2 = load ptr, ptr %buffer_, align 8
  %3 = load i64, ptr %2, align 8
  %conv = trunc i64 %3 to i32
  %cmp2.not = icmp slt i32 %conv, %count
  br i1 %cmp2.not, label %if.then.i7, label %if.else.i

_ZNK4absl12lts_2023080210CordBuffer6lengthEv.exit.thread: ; preds = %if.end
  %4 = ashr i8 %0, 1
  %conv16 = sext i8 %4 to i32
  %cmp2.not17 = icmp slt i32 %conv16, %count
  br i1 %cmp2.not17, label %_ZN4absl12lts_2023080210CordBufferD2Ev.exit, label %if.then.i

if.then.i:                                        ; preds = %_ZNK4absl12lts_2023080210CordBuffer6lengthEv.exit.thread
  %5 = trunc i32 %count to i8
  %length.tr.i.i = sub i8 %4, %5
  %6 = shl i8 %length.tr.i.i, 1
  %conv.i.i = or disjoint i8 %6, 1
  store i8 %conv.i.i, ptr %buffer_, align 8
  br label %if.end10.sink.split

if.else.i:                                        ; preds = %_ZNK4absl12lts_2023080210CordBuffer6lengthEv.exit
  %sub = sub nsw i32 %conv, %count
  %conv5 = sext i32 %sub to i64
  store i64 %conv5, ptr %2, align 8
  br label %if.end10.sink.split

if.then.i7:                                       ; preds = %_ZNK4absl12lts_2023080210CordBuffer6lengthEv.exit
  tail call void @_ZdlPv(ptr noundef nonnull %2) #25
  br label %_ZN4absl12lts_2023080210CordBufferD2Ev.exit

_ZN4absl12lts_2023080210CordBufferD2Ev.exit:      ; preds = %_ZNK4absl12lts_2023080210CordBuffer6lengthEv.exit.thread, %if.then.i7
  store ptr inttoptr (i64 1 to ptr), ptr %buffer_, align 8
  %ref.tmp.sroa.7.0.buffer_.sroa_idx = getelementptr inbounds i8, ptr %this, i64 48
  store ptr null, ptr %ref.tmp.sroa.7.0.buffer_.sroa_idx, align 8
  %cord_ = getelementptr inbounds i8, ptr %this, i64 8
  %conv8 = sext i32 %count to i64
  tail call void @_ZN4absl12lts_202308024Cord12RemoveSuffixEm(ptr noundef nonnull align 8 dereferenceable(16) %cord_, i64 noundef %conv8)
  br label %if.end10.sink.split

if.end10.sink.split:                              ; preds = %if.else.i, %if.then.i, %_ZN4absl12lts_2023080210CordBufferD2Ev.exit
  %.sink = phi i32 [ 3, %_ZN4absl12lts_2023080210CordBufferD2Ev.exit ], [ 2, %if.then.i ], [ 2, %if.else.i ]
  %state_9 = getelementptr inbounds i8, ptr %this, i64 32
  store i32 %.sink, ptr %state_9, align 8
  br label %if.end10

if.end10:                                         ; preds = %if.end10.sink.split, %entry
  ret void
}